; Function Attrs: mustprogress nofree norecurse nosync nounwind willreturn memory(readwrite, argmem: none, inaccessiblemem: none) uwtable
define internal noundef i32 @updateHZ(ptr nocapture readnone %err) #19 {
entry:
  %0 = load i32, ptr getelementptr inbounds (%struct.redisServer, ptr @server, i64 0, i32 6), align 4
  %cmp = icmp slt i32 %0, 1
  br i1 %cmp, label %if.end3.sink.split, label %if.end

if.end:                                           ; preds = %entry
  %cmp1 = icmp ugt i32 %0, 500
  br i1 %cmp1, label %if.end3.sink.split, label %if.end3

if.end3.sink.split:                               ; preds = %if.end, %entry
  %.sink = phi i32 [ 1, %entry ], [ 500, %if.end ]
  store i32 %.sink, ptr getelementptr inbounds (%struct.redisServer, ptr @server, i64 0, i32 6), align 4
  br label %if.end3

if.end3:                                          ; preds = %if.end3.sink.split, %if.end
  %1 = phi i32 [ %0, %if.end ], [ %.sink, %if.end3.sink.split ]
  store i32 %1, ptr getelementptr inbounds (%struct.redisServer, ptr @server, i64 0, i32 8), align 4
  ret i32 1
}